; Function Attrs: mustprogress uwtable
define internal noundef zeroext i1 @_ZN12_GLOBAL__N_113AttrmapRemove5applyERN5Yosys5RTLIL8IdStringERNS2_5ConstE(ptr noundef nonnull align 8 dereferenceable(80) %0, ptr nocapture noundef nonnull readonly align 4 dereferenceable(4) %1, ptr noundef nonnull align 8 dereferenceable(32) %2) unnamed_addr #4 align 2 personality ptr @__gxx_personality_v0 {
  %4 = alloca %"struct.Yosys::RTLIL::Const", align 8
  %5 = getelementptr inbounds i8, ptr %0, i64 16
  %6 = tail call fastcc noundef zeroext i1 @_ZN12_GLOBAL__N_110match_nameERNSt7__cxx1112basic_stringIcSt11char_traitsIcESaIcEEERN5Yosys5RTLIL8IdStringEb(ptr noundef nonnull align 8 dereferenceable(32) %5, ptr noundef nonnull align 4 dereferenceable(4) %1, i1 noundef zeroext false)
  br i1 %6, label %7, label %24

7:                                                ; preds = %3
  %8 = getelementptr inbounds i8, ptr %0, i64 8
  %9 = load i8, ptr %8, align 8
  %10 = and i8 %9, 1
  %.not = icmp eq i8 %10, 0
  br i1 %.not, label %24, label %11

11:                                               ; preds = %7
  %12 = getelementptr inbounds i8, ptr %0, i64 48
  call void @llvm.lifetime.start.p0(i64 32, ptr nonnull %4)
  call fastcc void @_ZN12_GLOBAL__N_110make_valueERNSt7__cxx1112basic_stringIcSt11char_traitsIcESaIcEEE(ptr dead_on_unwind noalias nonnull writable align 8 %4, ptr noundef nonnull align 8 dereferenceable(32) %12)
  %13 = invoke noundef zeroext i1 @_ZNK5Yosys5RTLIL5ConsteqERKS1_(ptr noundef nonnull align 8 dereferenceable(32) %4, ptr noundef nonnull align 8 dereferenceable(32) %2)
          to label %14 unwind label %18

14:                                               ; preds = %11
  %15 = getelementptr inbounds i8, ptr %4, i64 8
  %16 = load ptr, ptr %15, align 8
  %.not.i.i.i.i.i = icmp eq ptr %16, null
  br i1 %.not.i.i.i.i.i, label %_ZN12_GLOBAL__N_111match_valueERNSt7__cxx1112basic_stringIcSt11char_traitsIcESaIcEEERN5Yosys5RTLIL5ConstEb.exit, label %17

17:                                               ; preds = %14
  call void @_ZdlPv(ptr noundef nonnull %16) #22
  br label %_ZN12_GLOBAL__N_111match_valueERNSt7__cxx1112basic_stringIcSt11char_traitsIcESaIcEEERN5Yosys5RTLIL5ConstEb.exit

18:                                               ; preds = %11
  %19 = landingpad { ptr, i32 }
          cleanup
  %20 = getelementptr inbounds i8, ptr %4, i64 8
  %21 = load ptr, ptr %20, align 8
  %.not.i.i.i.i16.i = icmp eq ptr %21, null
  br i1 %.not.i.i.i.i16.i, label %_ZN5Yosys5RTLIL5ConstD2Ev.exit17.i, label %22

22:                                               ; preds = %18
  call void @_ZdlPv(ptr noundef nonnull %21) #22
  br label %_ZN5Yosys5RTLIL5ConstD2Ev.exit17.i

_ZN5Yosys5RTLIL5ConstD2Ev.exit17.i:               ; preds = %22, %18
  resume { ptr, i32 } %19

_ZN12_GLOBAL__N_111match_valueERNSt7__cxx1112basic_stringIcSt11char_traitsIcESaIcEEERN5Yosys5RTLIL5ConstEb.exit: ; preds = %14, %17
  call void @llvm.lifetime.end.p0(i64 32, ptr nonnull %4)
  %23 = xor i1 %13, true
  br label %24

24:                                               ; preds = %7, %_ZN12_GLOBAL__N_111match_valueERNSt7__cxx1112basic_stringIcSt11char_traitsIcESaIcEEERN5Yosys5RTLIL5ConstEb.exit, %3
  %25 = phi i1 [ true, %3 ], [ false, %7 ], [ %23, %_ZN12_GLOBAL__N_111match_valueERNSt7__cxx1112basic_stringIcSt11char_traitsIcESaIcEEERN5Yosys5RTLIL5ConstEb.exit ]
  ret i1 %25
}